target datalayout = "e-m:e-p270:32:32-p271:32:32-p272:64:64-i64:64-i128:128-f80:128-n8:16:32:64-S128"
target triple = "x86_64-unknown-linux-gnu"

%"struct.OpenImageIO_v2_6_0::ImageBufAlgo::PixelStats" = type { %"class.std::vector", %"class.std::vector", %"class.std::vector", %"class.std::vector", %"class.std::vector.0", %"class.std::vector.0", %"class.std::vector.0", %"class.std::vector.5", %"class.std::vector.5" }
%"class.std::vector" = type { %"struct.std::_Vector_base" }
%"struct.std::_Vector_base" = type { %"struct.std::_Vector_base<float, std::allocator<float>>::_Vector_impl" }
%"struct.std::_Vector_base<float, std::allocator<float>>::_Vector_impl" = type { %"struct.std::_Vector_base<float, std::allocator<float>>::_Vector_impl_data" }
%"struct.std::_Vector_base<float, std::allocator<float>>::_Vector_impl_data" = type { ptr, ptr, ptr }
%"class.std::vector.0" = type { %"struct.std::_Vector_base.1" }
%"struct.std::_Vector_base.1" = type { %"struct.std::_Vector_base<unsigned long, std::allocator<unsigned long>>::_Vector_impl" }
%"struct.std::_Vector_base<unsigned long, std::allocator<unsigned long>>::_Vector_impl" = type { %"struct.std::_Vector_base<unsigned long, std::allocator<unsigned long>>::_Vector_impl_data" }
%"struct.std::_Vector_base<unsigned long, std::allocator<unsigned long>>::_Vector_impl_data" = type { ptr, ptr, ptr }
%"class.std::vector.5" = type { %"struct.std::_Vector_base.6" }
%"struct.std::_Vector_base.6" = type { %"struct.std::_Vector_base<double, std::allocator<double>>::_Vector_impl" }
%"struct.std::_Vector_base<double, std::allocator<double>>::_Vector_impl" = type { %"struct.std::_Vector_base<double, std::allocator<double>>::_Vector_impl_data" }
%"struct.std::_Vector_base<double, std::allocator<double>>::_Vector_impl_data" = type { ptr, ptr, ptr }

; Function Attrs: mustprogress nounwind uwtable
define linkonce_odr noundef nonnull align 8 dereferenceable(8) ptr @_ZNSt6vectorIdSaIdEEixEm(ptr noundef nonnull align 8 dereferenceable(24) %this, i64 noundef %__n) #4 comdat align 2 {
entry:
  %this.addr = alloca ptr, align 8
  %__n.addr = alloca i64, align 8
  store ptr %this, ptr %this.addr, align 8
  store i64 %__n, ptr %__n.addr, align 8
  %this1 = load ptr, ptr %this.addr, align 8
  %_M_impl = getelementptr inbounds %"struct.std::_Vector_base.6", ptr %this1, i32 0, i32 0
  %_M_start = getelementptr inbounds %"struct.std::_Vector_base<double, std::allocator<double>>::_Vector_impl_data", ptr %_M_impl, i32 0, i32 0
  %0 = load ptr, ptr %_M_start, align 8
  %1 = load i64, ptr %__n.addr, align 8
  %add.ptr = getelementptr inbounds double, ptr %0, i64 %1
  ret ptr %add.ptr
}

; Function Attrs: mustprogress nounwind uwtable
define linkonce_odr noundef nonnull align 8 dereferenceable(8) ptr @_ZNKSt6vectorIdSaIdEEixEm(ptr noundef nonnull align 8 dereferenceable(24) %this, i64 noundef %__n) #4 comdat align 2 {
entry:
  %this.addr = alloca ptr, align 8
  %__n.addr = alloca i64, align 8
  store ptr %this, ptr %this.addr, align 8
  store i64 %__n, ptr %__n.addr, align 8
  %this1 = load ptr, ptr %this.addr, align 8
  %_M_impl = getelementptr inbounds %"struct.std::_Vector_base.6", ptr %this1, i32 0, i32 0
  %_M_start = getelementptr inbounds %"struct.std::_Vector_base<double, std::allocator<double>>::_Vector_impl_data", ptr %_M_impl, i32 0, i32 0
  %0 = load ptr, ptr %_M_start, align 8
  %1 = load i64, ptr %__n.addr, align 8
  %add.ptr = getelementptr inbounds double, ptr %0, i64 %1
  ret ptr %add.ptr
}

; Function Attrs: mustprogress nounwind uwtable
define linkonce_odr noundef nonnull align 8 dereferenceable(8) ptr @_ZNSt6vectorImSaImEEixEm(ptr noundef nonnull align 8 dereferenceable(24) %this, i64 noundef %__n) #4 comdat align 2 {
entry:
  %this.addr = alloca ptr, align 8
  %__n.addr = alloca i64, align 8
  store ptr %this, ptr %this.addr, align 8
  store i64 %__n, ptr %__n.addr, align 8
  %this1 = load ptr, ptr %this.addr, align 8
  %_M_impl = getelementptr inbounds %"struct.std::_Vector_base.1", ptr %this1, i32 0, i32 0
  %_M_start = getelementptr inbounds %"struct.std::_Vector_base<unsigned long, std::allocator<unsigned long>>::_Vector_impl_data", ptr %_M_impl, i32 0, i32 0
  %0 = load ptr, ptr %_M_start, align 8
  %1 = load i64, ptr %__n.addr, align 8
  %add.ptr = getelementptr inbounds i64, ptr %0, i64 %1
  ret ptr %add.ptr
}

; Function Attrs: mustprogress nounwind uwtable
define linkonce_odr noundef nonnull align 8 dereferenceable(8) ptr @_ZNKSt6vectorImSaImEEixEm(ptr noundef nonnull align 8 dereferenceable(24) %this, i64 noundef %__n) #4 comdat align 2 {
entry:
  %this.addr = alloca ptr, align 8
  %__n.addr = alloca i64, align 8
  store ptr %this, ptr %this.addr, align 8
  store i64 %__n, ptr %__n.addr, align 8
  %this1 = load ptr, ptr %this.addr, align 8
  %_M_impl = getelementptr inbounds %"struct.std::_Vector_base.1", ptr %this1, i32 0, i32 0
  %_M_start = getelementptr inbounds %"struct.std::_Vector_base<unsigned long, std::allocator<unsigned long>>::_Vector_impl_data", ptr %_M_impl, i32 0, i32 0
  %0 = load ptr, ptr %_M_start, align 8
  %1 = load i64, ptr %__n.addr, align 8
  %add.ptr = getelementptr inbounds i64, ptr %0, i64 %1
  ret ptr %add.ptr
}

; Function Attrs: mustprogress nounwind uwtable
define linkonce_odr noundef nonnull align 4 dereferenceable(4) ptr @_ZSt3maxIfERKT_S2_S2_(ptr noundef nonnull align 4 dereferenceable(4) %__a, ptr noundef nonnull align 4 dereferenceable(4) %__b) #4 comdat {
entry:
  %retval = alloca ptr, align 8
  %__a.addr = alloca ptr, align 8
  %__b.addr = alloca ptr, align 8
  store ptr %__a, ptr %__a.addr, align 8
  store ptr %__b, ptr %__b.addr, align 8
  %0 = load ptr, ptr %__a.addr, align 8
  %1 = load float, ptr %0, align 4
  %2 = load ptr, ptr %__b.addr, align 8
  %3 = load float, ptr %2, align 4
  %cmp = fcmp olt float %1, %3
  br i1 %cmp, label %if.then, label %if.end

if.then:                                          ; preds = %entry
  %4 = load ptr, ptr %__b.addr, align 8
  store ptr %4, ptr %retval, align 8
  br label %return

if.end:                                           ; preds = %entry
  %5 = load ptr, ptr %__a.addr, align 8
  store ptr %5, ptr %retval, align 8
  br label %return

return:                                           ; preds = %if.end, %if.then
  %6 = load ptr, ptr %retval, align 8
  ret ptr %6
}

; Function Attrs: mustprogress nounwind uwtable
define linkonce_odr noundef nonnull align 4 dereferenceable(4) ptr @_ZSt3minIfERKT_S2_S2_(ptr noundef nonnull align 4 dereferenceable(4) %__a, ptr noundef nonnull align 4 dereferenceable(4) %__b) #4 comdat {
entry:
  %retval = alloca ptr, align 8
  %__a.addr = alloca ptr, align 8
  %__b.addr = alloca ptr, align 8
  store ptr %__a, ptr %__a.addr, align 8
  store ptr %__b, ptr %__b.addr, align 8
  %0 = load ptr, ptr %__b.addr, align 8
  %1 = load float, ptr %0, align 4
  %2 = load ptr, ptr %__a.addr, align 8
  %3 = load float, ptr %2, align 4
  %cmp = fcmp olt float %1, %3
  br i1 %cmp, label %if.then, label %if.end

if.then:                                          ; preds = %entry
  %4 = load ptr, ptr %__b.addr, align 8
  store ptr %4, ptr %retval, align 8
  br label %return

if.end:                                           ; preds = %entry
  %5 = load ptr, ptr %__a.addr, align 8
  store ptr %5, ptr %retval, align 8
  br label %return

return:                                           ; preds = %if.end, %if.then
  %6 = load ptr, ptr %retval, align 8
  ret ptr %6
}

; Function Attrs: mustprogress nounwind uwtable
define linkonce_odr noundef nonnull align 4 dereferenceable(4) ptr @_ZNKSt6vectorIfSaIfEEixEm(ptr noundef nonnull align 8 dereferenceable(24) %this, i64 noundef %__n) #4 comdat align 2 {
entry:
  %this.addr = alloca ptr, align 8
  %__n.addr = alloca i64, align 8
  store ptr %this, ptr %this.addr, align 8
  store i64 %__n, ptr %__n.addr, align 8
  %this1 = load ptr, ptr %this.addr, align 8
  %_M_impl = getelementptr inbounds %"struct.std::_Vector_base", ptr %this1, i32 0, i32 0
  %_M_start = getelementptr inbounds %"struct.std::_Vector_base<float, std::allocator<float>>::_Vector_impl_data", ptr %_M_impl, i32 0, i32 0
  %0 = load ptr, ptr %_M_start, align 8
  %1 = load i64, ptr %__n.addr, align 8
  %add.ptr = getelementptr inbounds float, ptr %0, i64 %1
  ret ptr %add.ptr
}

; Function Attrs: mustprogress nounwind uwtable
define linkonce_odr noundef nonnull align 4 dereferenceable(4) ptr @_ZNSt6vectorIfSaIfEEixEm(ptr noundef nonnull align 8 dereferenceable(24) %this, i64 noundef %__n) #4 comdat align 2 {
entry:
  %this.addr = alloca ptr, align 8
  %__n.addr = alloca i64, align 8
  store ptr %this, ptr %this.addr, align 8
  store i64 %__n, ptr %__n.addr, align 8
  %this1 = load ptr, ptr %this.addr, align 8
  %_M_impl = getelementptr inbounds %"struct.std::_Vector_base", ptr %this1, i32 0, i32 0
  %_M_start = getelementptr inbounds %"struct.std::_Vector_base<float, std::allocator<float>>::_Vector_impl_data", ptr %_M_impl, i32 0, i32 0
  %0 = load ptr, ptr %_M_start, align 8
  %1 = load i64, ptr %__n.addr, align 8
  %add.ptr = getelementptr inbounds float, ptr %0, i64 %1
  ret ptr %add.ptr
}

; Function Attrs: mustprogress nounwind uwtable
define linkonce_odr noundef i64 @_ZNKSt6vectorIfSaIfEE4sizeEv(ptr noundef nonnull align 8 dereferenceable(24) %this) #4 comdat align 2 {
entry:
  %this.addr = alloca ptr, align 8
  store ptr %this, ptr %this.addr, align 8
  %this1 = load ptr, ptr %this.addr, align 8
  %_M_impl = getelementptr inbounds %"struct.std::_Vector_base", ptr %this1, i32 0, i32 0
  %_M_finish = getelementptr inbounds %"struct.std::_Vector_base<float, std::allocator<float>>::_Vector_impl_data", ptr %_M_impl, i32 0, i32 1
  %0 = load ptr, ptr %_M_finish, align 8
  %_M_impl2 = getelementptr inbounds %"struct.std::_Vector_base", ptr %this1, i32 0, i32 0
  %_M_start = getelementptr inbounds %"struct.std::_Vector_base<float, std::allocator<float>>::_Vector_impl_data", ptr %_M_impl2, i32 0, i32 0
  %1 = load ptr, ptr %_M_start, align 8
  %sub.ptr.lhs.cast = ptrtoint ptr %0 to i64
  %sub.ptr.rhs.cast = ptrtoint ptr %1 to i64
  %sub.ptr.sub = sub i64 %sub.ptr.lhs.cast, %sub.ptr.rhs.cast
  %sub.ptr.div = sdiv exact i64 %sub.ptr.sub, 4
  ret i64 %sub.ptr.div
}

; Function Attrs: mustprogress uwtable
define void @_ZN18OpenImageIO_v2_6_012ImageBufAlgo10PixelStats5mergeERKS1_(ptr noundef nonnull align 8 dereferenceable(216) %this, ptr noundef nonnull align 8 dereferenceable(216) %p) #6 align 2 {
entry:
  %this.addr = alloca ptr, align 8
  %p.addr = alloca ptr, align 8
  %c = alloca i64, align 8
  %e = alloca i64, align 8
  store ptr %this, ptr %this.addr, align 8
  store ptr %p, ptr %p.addr, align 8
  %this1 = load ptr, ptr %this.addr, align 8
  store i64 0, ptr %c, align 8
  %min = getelementptr inbounds %"struct.OpenImageIO_v2_6_0::ImageBufAlgo::PixelStats", ptr %this1, i32 0, i32 0
  %call = call noundef i64 @_ZNKSt6vectorIfSaIfEE4sizeEv(ptr noundef nonnull align 8 dereferenceable(24) %min) #3
  store i64 %call, ptr %e, align 8
  br label %for.cond

for.cond:                                         ; preds = %for.inc, %entry
  %0 = load i64, ptr %c, align 8
  %1 = load i64, ptr %e, align 8
  %cmp = icmp ult i64 %0, %1
  br i1 %cmp, label %for.body, label %for.end

for.body:                                         ; preds = %for.cond
  %min2 = getelementptr inbounds %"struct.OpenImageIO_v2_6_0::ImageBufAlgo::PixelStats", ptr %this1, i32 0, i32 0
  %2 = load i64, ptr %c, align 8
  %call3 = call noundef nonnull align 4 dereferenceable(4) ptr @_ZNSt6vectorIfSaIfEEixEm(ptr noundef nonnull align 8 dereferenceable(24) %min2, i64 noundef %2) #3
  %3 = load ptr, ptr %p.addr, align 8
  %min4 = getelementptr inbounds %"struct.OpenImageIO_v2_6_0::ImageBufAlgo::PixelStats", ptr %3, i32 0, i32 0
  %4 = load i64, ptr %c, align 8
  %call5 = call noundef nonnull align 4 dereferenceable(4) ptr @_ZNKSt6vectorIfSaIfEEixEm(ptr noundef nonnull align 8 dereferenceable(24) %min4, i64 noundef %4) #3
  %call6 = call noundef nonnull align 4 dereferenceable(4) ptr @_ZSt3minIfERKT_S2_S2_(ptr noundef nonnull align 4 dereferenceable(4) %call3, ptr noundef nonnull align 4 dereferenceable(4) %call5)
  %5 = load float, ptr %call6, align 4
  %min7 = getelementptr inbounds %"struct.OpenImageIO_v2_6_0::ImageBufAlgo::PixelStats", ptr %this1, i32 0, i32 0
  %6 = load i64, ptr %c, align 8
  %call8 = call noundef nonnull align 4 dereferenceable(4) ptr @_ZNSt6vectorIfSaIfEEixEm(ptr noundef nonnull align 8 dereferenceable(24) %min7, i64 noundef %6) #3
  store float %5, ptr %call8, align 4
  %max = getelementptr inbounds %"struct.OpenImageIO_v2_6_0::ImageBufAlgo::PixelStats", ptr %this1, i32 0, i32 1
  %7 = load i64, ptr %c, align 8
  %call9 = call noundef nonnull align 4 dereferenceable(4) ptr @_ZNSt6vectorIfSaIfEEixEm(ptr noundef nonnull align 8 dereferenceable(24) %max, i64 noundef %7) #3
  %8 = load ptr, ptr %p.addr, align 8
  %max10 = getelementptr inbounds %"struct.OpenImageIO_v2_6_0::ImageBufAlgo::PixelStats", ptr %8, i32 0, i32 1
  %9 = load i64, ptr %c, align 8
  %call11 = call noundef nonnull align 4 dereferenceable(4) ptr @_ZNKSt6vectorIfSaIfEEixEm(ptr noundef nonnull align 8 dereferenceable(24) %max10, i64 noundef %9) #3
  %call12 = call noundef nonnull align 4 dereferenceable(4) ptr @_ZSt3maxIfERKT_S2_S2_(ptr noundef nonnull align 4 dereferenceable(4) %call9, ptr noundef nonnull align 4 dereferenceable(4) %call11)
  %10 = load float, ptr %call12, align 4
  %max13 = getelementptr inbounds %"struct.OpenImageIO_v2_6_0::ImageBufAlgo::PixelStats", ptr %this1, i32 0, i32 1
  %11 = load i64, ptr %c, align 8
  %call14 = call noundef nonnull align 4 dereferenceable(4) ptr @_ZNSt6vectorIfSaIfEEixEm(ptr noundef nonnull align 8 dereferenceable(24) %max13, i64 noundef %11) #3
  store float %10, ptr %call14, align 4
  %12 = load ptr, ptr %p.addr, align 8
  %nancount = getelementptr inbounds %"struct.OpenImageIO_v2_6_0::ImageBufAlgo::PixelStats", ptr %12, i32 0, i32 4
  %13 = load i64, ptr %c, align 8
  %call15 = call noundef nonnull align 8 dereferenceable(8) ptr @_ZNKSt6vectorImSaImEEixEm(ptr noundef nonnull align 8 dereferenceable(24) %nancount, i64 noundef %13) #3
  %14 = load i64, ptr %call15, align 8
  %nancount16 = getelementptr inbounds %"struct.OpenImageIO_v2_6_0::ImageBufAlgo::PixelStats", ptr %this1, i32 0, i32 4
  %15 = load i64, ptr %c, align 8
  %call17 = call noundef nonnull align 8 dereferenceable(8) ptr @_ZNSt6vectorImSaImEEixEm(ptr noundef nonnull align 8 dereferenceable(24) %nancount16, i64 noundef %15) #3
  %16 = load i64, ptr %call17, align 8
  %add = add i64 %16, %14
  store i64 %add, ptr %call17, align 8
  %17 = load ptr, ptr %p.addr, align 8
  %infcount = getelementptr inbounds %"struct.OpenImageIO_v2_6_0::ImageBufAlgo::PixelStats", ptr %17, i32 0, i32 5
  %18 = load i64, ptr %c, align 8
  %call18 = call noundef nonnull align 8 dereferenceable(8) ptr @_ZNKSt6vectorImSaImEEixEm(ptr noundef nonnull align 8 dereferenceable(24) %infcount, i64 noundef %18) #3
  %19 = load i64, ptr %call18, align 8
  %infcount19 = getelementptr inbounds %"struct.OpenImageIO_v2_6_0::ImageBufAlgo::PixelStats", ptr %this1, i32 0, i32 5
  %20 = load i64, ptr %c, align 8
  %call20 = call noundef nonnull align 8 dereferenceable(8) ptr @_ZNSt6vectorImSaImEEixEm(ptr noundef nonnull align 8 dereferenceable(24) %infcount19, i64 noundef %20) #3
  %21 = load i64, ptr %call20, align 8
  %add21 = add i64 %21, %19
  store i64 %add21, ptr %call20, align 8
  %22 = load ptr, ptr %p.addr, align 8
  %finitecount = getelementptr inbounds %"struct.OpenImageIO_v2_6_0::ImageBufAlgo::PixelStats", ptr %22, i32 0, i32 6
  %23 = load i64, ptr %c, align 8
  %call22 = call noundef nonnull align 8 dereferenceable(8) ptr @_ZNKSt6vectorImSaImEEixEm(ptr noundef nonnull align 8 dereferenceable(24) %finitecount, i64 noundef %23) #3
  %24 = load i64, ptr %call22, align 8
  %finitecount23 = getelementptr inbounds %"struct.OpenImageIO_v2_6_0::ImageBufAlgo::PixelStats", ptr %this1, i32 0, i32 6
  %25 = load i64, ptr %c, align 8
  %call24 = call noundef nonnull align 8 dereferenceable(8) ptr @_ZNSt6vectorImSaImEEixEm(ptr noundef nonnull align 8 dereferenceable(24) %finitecount23, i64 noundef %25) #3
  %26 = load i64, ptr %call24, align 8
  %add25 = add i64 %26, %24
  store i64 %add25, ptr %call24, align 8
  %27 = load ptr, ptr %p.addr, align 8
  %sum = getelementptr inbounds %"struct.OpenImageIO_v2_6_0::ImageBufAlgo::PixelStats", ptr %27, i32 0, i32 7
  %28 = load i64, ptr %c, align 8
  %call26 = call noundef nonnull align 8 dereferenceable(8) ptr @_ZNKSt6vectorIdSaIdEEixEm(ptr noundef nonnull align 8 dereferenceable(24) %sum, i64 noundef %28) #3
  %29 = load double, ptr %call26, align 8
  %sum27 = getelementptr inbounds %"struct.OpenImageIO_v2_6_0::ImageBufAlgo::PixelStats", ptr %this1, i32 0, i32 7
  %30 = load i64, ptr %c, align 8
  %call28 = call noundef nonnull align 8 dereferenceable(8) ptr @_ZNSt6vectorIdSaIdEEixEm(ptr noundef nonnull align 8 dereferenceable(24) %sum27, i64 noundef %30) #3
  %31 = load double, ptr %call28, align 8
  %add29 = fadd double %31, %29
  store double %add29, ptr %call28, align 8
  %32 = load ptr, ptr %p.addr, align 8
  %sum2 = getelementptr inbounds %"struct.OpenImageIO_v2_6_0::ImageBufAlgo::PixelStats", ptr %32, i32 0, i32 8
  %33 = load i64, ptr %c, align 8
  %call30 = call noundef nonnull align 8 dereferenceable(8) ptr @_ZNKSt6vectorIdSaIdEEixEm(ptr noundef nonnull align 8 dereferenceable(24) %sum2, i64 noundef %33) #3
  %34 = load double, ptr %call30, align 8
  %sum231 = getelementptr inbounds %"struct.OpenImageIO_v2_6_0::ImageBufAlgo::PixelStats", ptr %this1, i32 0, i32 8
  %35 = load i64, ptr %c, align 8
  %call32 = call noundef nonnull align 8 dereferenceable(8) ptr @_ZNSt6vectorIdSaIdEEixEm(ptr noundef nonnull align 8 dereferenceable(24) %sum231, i64 noundef %35) #3
  %36 = load double, ptr %call32, align 8
  %add33 = fadd double %36, %34
  store double %add33, ptr %call32, align 8
  br label %for.inc

for.inc:                                          ; preds = %for.body
  %37 = load i64, ptr %c, align 8
  %inc = add i64 %37, 1
  store i64 %inc, ptr %c, align 8
  br label %for.cond, !llvm.loop !4

for.end:                                          ; preds = %for.cond
  ret void
}