; Function Attrs: mustprogress nofree norecurse nosync nounwind memory(readwrite, inaccessiblemem: none) uwtable
define void @_ZN18OpenImageIO_v2_6_012ImageBufAlgo10PixelStats5mergeERKS1_(ptr nocapture noundef nonnull readonly align 8 dereferenceable(216) %this, ptr nocapture noundef nonnull readonly align 8 dereferenceable(216) %p) local_unnamed_addr #6 align 2 {
entry:
  %_M_finish.i = getelementptr inbounds i8, ptr %this, i64 8
  %0 = load ptr, ptr %_M_finish.i, align 8
  %1 = load ptr, ptr %this, align 8
  %cmp41.not = icmp eq ptr %0, %1
  br i1 %cmp41.not, label %for.end, label %for.body.lr.ph

for.body.lr.ph:                                   ; preds = %entry
  %sub.ptr.lhs.cast.i = ptrtoint ptr %0 to i64
  %sub.ptr.rhs.cast.i = ptrtoint ptr %1 to i64
  %sub.ptr.sub.i = sub i64 %sub.ptr.lhs.cast.i, %sub.ptr.rhs.cast.i
  %sub.ptr.div.i = ashr exact i64 %sub.ptr.sub.i, 2
  %max = getelementptr inbounds i8, ptr %this, i64 24
  %max10 = getelementptr inbounds i8, ptr %p, i64 24
  %nancount = getelementptr inbounds i8, ptr %p, i64 96
  %nancount16 = getelementptr inbounds i8, ptr %this, i64 96
  %infcount = getelementptr inbounds i8, ptr %p, i64 120
  %infcount19 = getelementptr inbounds i8, ptr %this, i64 120
  %finitecount = getelementptr inbounds i8, ptr %p, i64 144
  %finitecount23 = getelementptr inbounds i8, ptr %this, i64 144
  %sum = getelementptr inbounds i8, ptr %p, i64 168
  %sum27 = getelementptr inbounds i8, ptr %this, i64 168
  %sum2 = getelementptr inbounds i8, ptr %p, i64 192
  %sum231 = getelementptr inbounds i8, ptr %this, i64 192
  %umax = tail call i64 @llvm.umax.i64(i64 %sub.ptr.div.i, i64 1)
  br label %for.body

for.body:                                         ; preds = %for.body.lr.ph, %for.body
  %c.042 = phi i64 [ 0, %for.body.lr.ph ], [ %inc, %for.body ]
  %2 = load ptr, ptr %this, align 8
  %add.ptr.i = getelementptr inbounds float, ptr %2, i64 %c.042
  %3 = load ptr, ptr %p, align 8
  %add.ptr.i24 = getelementptr inbounds float, ptr %3, i64 %c.042
  %4 = load float, ptr %add.ptr.i24, align 4
  %5 = load float, ptr %add.ptr.i, align 4
  %cmp.i = fcmp olt float %4, %5
  %6 = select i1 %cmp.i, float %4, float %5
  store float %6, ptr %add.ptr.i, align 4
  %7 = load ptr, ptr %max, align 8
  %add.ptr.i26 = getelementptr inbounds float, ptr %7, i64 %c.042
  %8 = load ptr, ptr %max10, align 8
  %add.ptr.i27 = getelementptr inbounds float, ptr %8, i64 %c.042
  %9 = load float, ptr %add.ptr.i26, align 4
  %10 = load float, ptr %add.ptr.i27, align 4
  %cmp.i28 = fcmp olt float %9, %10
  %11 = select i1 %cmp.i28, float %10, float %9
  store float %11, ptr %add.ptr.i26, align 4
  %12 = load ptr, ptr %nancount, align 8
  %add.ptr.i31 = getelementptr inbounds i64, ptr %12, i64 %c.042
  %13 = load i64, ptr %add.ptr.i31, align 8
  %14 = load ptr, ptr %nancount16, align 8
  %add.ptr.i32 = getelementptr inbounds i64, ptr %14, i64 %c.042
  %15 = load i64, ptr %add.ptr.i32, align 8
  %add = add i64 %15, %13
  store i64 %add, ptr %add.ptr.i32, align 8
  %16 = load ptr, ptr %infcount, align 8
  %add.ptr.i33 = getelementptr inbounds i64, ptr %16, i64 %c.042
  %17 = load i64, ptr %add.ptr.i33, align 8
  %18 = load ptr, ptr %infcount19, align 8
  %add.ptr.i34 = getelementptr inbounds i64, ptr %18, i64 %c.042
  %19 = load i64, ptr %add.ptr.i34, align 8
  %add21 = add i64 %19, %17
  store i64 %add21, ptr %add.ptr.i34, align 8
  %20 = load ptr, ptr %finitecount, align 8
  %add.ptr.i35 = getelementptr inbounds i64, ptr %20, i64 %c.042
  %21 = load i64, ptr %add.ptr.i35, align 8
  %22 = load ptr, ptr %finitecount23, align 8
  %add.ptr.i36 = getelementptr inbounds i64, ptr %22, i64 %c.042
  %23 = load i64, ptr %add.ptr.i36, align 8
  %add25 = add i64 %23, %21
  store i64 %add25, ptr %add.ptr.i36, align 8
  %24 = load ptr, ptr %sum, align 8
  %add.ptr.i37 = getelementptr inbounds double, ptr %24, i64 %c.042
  %25 = load double, ptr %add.ptr.i37, align 8
  %26 = load ptr, ptr %sum27, align 8
  %add.ptr.i38 = getelementptr inbounds double, ptr %26, i64 %c.042
  %27 = load double, ptr %add.ptr.i38, align 8
  %add29 = fadd double %25, %27
  store double %add29, ptr %add.ptr.i38, align 8
  %28 = load ptr, ptr %sum2, align 8
  %add.ptr.i39 = getelementptr inbounds double, ptr %28, i64 %c.042
  %29 = load double, ptr %add.ptr.i39, align 8
  %30 = load ptr, ptr %sum231, align 8
  %add.ptr.i40 = getelementptr inbounds double, ptr %30, i64 %c.042
  %31 = load double, ptr %add.ptr.i40, align 8
  %add33 = fadd double %29, %31
  store double %add33, ptr %add.ptr.i40, align 8
  %inc = add nuw i64 %c.042, 1
  %exitcond.not = icmp eq i64 %inc, %umax
  br i1 %exitcond.not, label %for.end, label %for.body, !llvm.loop !4

for.end:                                          ; preds = %for.body, %entry
  ret void
}